target datalayout = "e-m:e-p270:32:32-p271:32:32-p272:64:64-i64:64-i128:128-f80:128-n8:16:32:64-S128"
target triple = "x86_64-pc-linux-gnu"

@ett_s7comm_szl_0131_0003_funkt_0 = internal global i32 0, align 4
@ett_s7comm_szl_0131_0003_funkt_1 = internal global i32 0, align 4
@ett_s7comm_szl_0131_0003_funkt_2 = internal global i32 0, align 4
@ett_s7comm_szl_0131_0003_funkt_3 = internal global i32 0, align 4
@hf_s7comm_szl_0131_0003_index = internal global i32 0, align 4
@hf_s7comm_szl_0131_0003_funkt_0 = internal global i32 0, align 4
@hf_s7comm_szl_0131_0003_funkt_1 = internal global i32 0, align 4
@hf_s7comm_szl_0131_0003_funkt_2 = internal global i32 0, align 4
@hf_s7comm_szl_0131_0003_funkt_3 = internal global i32 0, align 4
@hf_s7comm_szl_0131_0003_data = internal global i32 0, align 4
@hf_s7comm_szl_0131_0003_anz = internal global i32 0, align 4
@hf_s7comm_szl_0131_0003_per_min = internal global i32 0, align 4
@hf_s7comm_szl_0131_0003_per_max = internal global i32 0, align 4
@hf_s7comm_szl_0131_0003_res = internal global i32 0, align 4

; Function Attrs: null_pointer_is_valid sspstrong uwtable
define internal i32 @s7comm_decode_szl_id_0131_idx_0003(ptr noundef %0, ptr noundef %1, i32 noundef %2) #0 {
  %4 = alloca ptr, align 8
  %5 = alloca ptr, align 8
  %6 = alloca i32, align 4
  store ptr %0, ptr %4, align 8
  store ptr %1, ptr %5, align 8
  store i32 %2, ptr %6, align 4
  %7 = load ptr, ptr %5, align 8
  %8 = load i32, ptr @hf_s7comm_szl_0131_0003_index, align 4
  %9 = load ptr, ptr %4, align 8
  %10 = load i32, ptr %6, align 4
  %11 = call ptr @proto_tree_add_item(ptr noundef %7, i32 noundef %8, ptr noundef %9, i32 noundef %10, i32 noundef 2, i32 noundef 0)
  %12 = load i32, ptr %6, align 4
  %13 = add i32 %12, 2
  store i32 %13, ptr %6, align 4
  %14 = load ptr, ptr %5, align 8
  %15 = load ptr, ptr %4, align 8
  %16 = load i32, ptr %6, align 4
  %17 = load i32, ptr @hf_s7comm_szl_0131_0003_funkt_0, align 4
  %18 = load i32, ptr @ett_s7comm_szl_0131_0003_funkt_0, align 4
  %19 = call ptr @proto_tree_add_bitmask(ptr noundef %14, ptr noundef %15, i32 noundef %16, i32 noundef %17, i32 noundef %18, ptr noundef @s7comm_szl_0131_0003_funkt_0_fields, i32 noundef 0)
  %20 = load i32, ptr %6, align 4
  %21 = add i32 %20, 1
  store i32 %21, ptr %6, align 4
  %22 = load ptr, ptr %5, align 8
  %23 = load ptr, ptr %4, align 8
  %24 = load i32, ptr %6, align 4
  %25 = load i32, ptr @hf_s7comm_szl_0131_0003_funkt_1, align 4
  %26 = load i32, ptr @ett_s7comm_szl_0131_0003_funkt_1, align 4
  %27 = call ptr @proto_tree_add_bitmask(ptr noundef %22, ptr noundef %23, i32 noundef %24, i32 noundef %25, i32 noundef %26, ptr noundef @s7comm_szl_0131_0003_funkt_1_fields, i32 noundef 0)
  %28 = load i32, ptr %6, align 4
  %29 = add i32 %28, 1
  store i32 %29, ptr %6, align 4
  %30 = load ptr, ptr %5, align 8
  %31 = load ptr, ptr %4, align 8
  %32 = load i32, ptr %6, align 4
  %33 = load i32, ptr @hf_s7comm_szl_0131_0003_funkt_2, align 4
  %34 = load i32, ptr @ett_s7comm_szl_0131_0003_funkt_2, align 4
  %35 = call ptr @proto_tree_add_bitmask(ptr noundef %30, ptr noundef %31, i32 noundef %32, i32 noundef %33, i32 noundef %34, ptr noundef @s7comm_szl_0131_0003_funkt_2_fields, i32 noundef 0)
  %36 = load i32, ptr %6, align 4
  %37 = add i32 %36, 1
  store i32 %37, ptr %6, align 4
  %38 = load ptr, ptr %5, align 8
  %39 = load ptr, ptr %4, align 8
  %40 = load i32, ptr %6, align 4
  %41 = load i32, ptr @hf_s7comm_szl_0131_0003_funkt_3, align 4
  %42 = load i32, ptr @ett_s7comm_szl_0131_0003_funkt_3, align 4
  %43 = call ptr @proto_tree_add_bitmask(ptr noundef %38, ptr noundef %39, i32 noundef %40, i32 noundef %41, i32 noundef %42, ptr noundef @s7comm_szl_0131_0003_funkt_3_fields, i32 noundef 0)
  %44 = load i32, ptr %6, align 4
  %45 = add i32 %44, 1
  store i32 %45, ptr %6, align 4
  %46 = load ptr, ptr %5, align 8
  %47 = load i32, ptr @hf_s7comm_szl_0131_0003_data, align 4
  %48 = load ptr, ptr %4, align 8
  %49 = load i32, ptr %6, align 4
  %50 = call ptr @proto_tree_add_item(ptr noundef %46, i32 noundef %47, ptr noundef %48, i32 noundef %49, i32 noundef 2, i32 noundef 0)
  %51 = load i32, ptr %6, align 4
  %52 = add i32 %51, 2
  store i32 %52, ptr %6, align 4
  %53 = load ptr, ptr %5, align 8
  %54 = load i32, ptr @hf_s7comm_szl_0131_0003_anz, align 4
  %55 = load ptr, ptr %4, align 8
  %56 = load i32, ptr %6, align 4
  %57 = call ptr @proto_tree_add_item(ptr noundef %53, i32 noundef %54, ptr noundef %55, i32 noundef %56, i32 noundef 2, i32 noundef 0)
  %58 = load i32, ptr %6, align 4
  %59 = add i32 %58, 2
  store i32 %59, ptr %6, align 4
  %60 = load ptr, ptr %5, align 8
  %61 = load i32, ptr @hf_s7comm_szl_0131_0003_per_min, align 4
  %62 = load ptr, ptr %4, align 8
  %63 = load i32, ptr %6, align 4
  %64 = call ptr @proto_tree_add_item(ptr noundef %60, i32 noundef %61, ptr noundef %62, i32 noundef %63, i32 noundef 2, i32 noundef 0)
  %65 = load i32, ptr %6, align 4
  %66 = add i32 %65, 2
  store i32 %66, ptr %6, align 4
  %67 = load ptr, ptr %5, align 8
  %68 = load i32, ptr @hf_s7comm_szl_0131_0003_per_max, align 4
  %69 = load ptr, ptr %4, align 8
  %70 = load i32, ptr %6, align 4
  %71 = call ptr @proto_tree_add_item(ptr noundef %67, i32 noundef %68, ptr noundef %69, i32 noundef %70, i32 noundef 2, i32 noundef 0)
  %72 = load i32, ptr %6, align 4
  %73 = add i32 %72, 2
  store i32 %73, ptr %6, align 4
  %74 = load ptr, ptr %5, align 8
  %75 = load i32, ptr @hf_s7comm_szl_0131_0003_res, align 4
  %76 = load ptr, ptr %4, align 8
  %77 = load i32, ptr %6, align 4
  %78 = call ptr @proto_tree_add_item(ptr noundef %74, i32 noundef %75, ptr noundef %76, i32 noundef %77, i32 noundef 26, i32 noundef 0)
  %79 = load i32, ptr %6, align 4
  %80 = add i32 %79, 26
  store i32 %80, ptr %6, align 4
  %81 = load i32, ptr %6, align 4
  ret i32 %81
}