; Function Attrs: null_pointer_is_valid sspstrong uwtable
define internal fastcc noundef i32 @s7comm_decode_szl_id_0131_idx_0003(ptr noundef %0, ptr noundef %1, i32 noundef %2) unnamed_addr #0 {
  %4 = load i32, ptr @hf_s7comm_szl_0131_0003_index, align 4
  %5 = tail call ptr @proto_tree_add_item(ptr noundef %1, i32 noundef %4, ptr noundef %0, i32 noundef %2, i32 noundef 2, i32 noundef 0)
  %6 = add i32 %2, 2
  %7 = load i32, ptr @hf_s7comm_szl_0131_0003_funkt_0, align 4
  %8 = load i32, ptr @ett_s7comm_szl_0131_0003_funkt_0, align 4
  %9 = tail call ptr @proto_tree_add_bitmask(ptr noundef %1, ptr noundef %0, i32 noundef %6, i32 noundef %7, i32 noundef %8, ptr noundef nonnull @s7comm_szl_0131_0003_funkt_0_fields, i32 noundef 0)
  %10 = add i32 %2, 3
  %11 = load i32, ptr @hf_s7comm_szl_0131_0003_funkt_1, align 4
  %12 = load i32, ptr @ett_s7comm_szl_0131_0003_funkt_1, align 4
  %13 = tail call ptr @proto_tree_add_bitmask(ptr noundef %1, ptr noundef %0, i32 noundef %10, i32 noundef %11, i32 noundef %12, ptr noundef nonnull @s7comm_szl_0131_0003_funkt_1_fields, i32 noundef 0)
  %14 = add i32 %2, 4
  %15 = load i32, ptr @hf_s7comm_szl_0131_0003_funkt_2, align 4
  %16 = load i32, ptr @ett_s7comm_szl_0131_0003_funkt_2, align 4
  %17 = tail call ptr @proto_tree_add_bitmask(ptr noundef %1, ptr noundef %0, i32 noundef %14, i32 noundef %15, i32 noundef %16, ptr noundef nonnull @s7comm_szl_0131_0003_funkt_2_fields, i32 noundef 0)
  %18 = add i32 %2, 5
  %19 = load i32, ptr @hf_s7comm_szl_0131_0003_funkt_3, align 4
  %20 = load i32, ptr @ett_s7comm_szl_0131_0003_funkt_3, align 4
  %21 = tail call ptr @proto_tree_add_bitmask(ptr noundef %1, ptr noundef %0, i32 noundef %18, i32 noundef %19, i32 noundef %20, ptr noundef nonnull @s7comm_szl_0131_0003_funkt_3_fields, i32 noundef 0)
  %22 = add i32 %2, 6
  %23 = load i32, ptr @hf_s7comm_szl_0131_0003_data, align 4
  %24 = tail call ptr @proto_tree_add_item(ptr noundef %1, i32 noundef %23, ptr noundef %0, i32 noundef %22, i32 noundef 2, i32 noundef 0)
  %25 = add i32 %2, 8
  %26 = load i32, ptr @hf_s7comm_szl_0131_0003_anz, align 4
  %27 = tail call ptr @proto_tree_add_item(ptr noundef %1, i32 noundef %26, ptr noundef %0, i32 noundef %25, i32 noundef 2, i32 noundef 0)
  %28 = add i32 %2, 10
  %29 = load i32, ptr @hf_s7comm_szl_0131_0003_per_min, align 4
  %30 = tail call ptr @proto_tree_add_item(ptr noundef %1, i32 noundef %29, ptr noundef %0, i32 noundef %28, i32 noundef 2, i32 noundef 0)
  %31 = add i32 %2, 12
  %32 = load i32, ptr @hf_s7comm_szl_0131_0003_per_max, align 4
  %33 = tail call ptr @proto_tree_add_item(ptr noundef %1, i32 noundef %32, ptr noundef %0, i32 noundef %31, i32 noundef 2, i32 noundef 0)
  %34 = add i32 %2, 14
  %35 = load i32, ptr @hf_s7comm_szl_0131_0003_res, align 4
  %36 = tail call ptr @proto_tree_add_item(ptr noundef %1, i32 noundef %35, ptr noundef %0, i32 noundef %34, i32 noundef 26, i32 noundef 0)
  %37 = add i32 %2, 40
  ret i32 %37
}